target datalayout = "e-m:e-p270:32:32-p271:32:32-p272:64:64-i64:64-i128:128-f80:128-n8:16:32:64-S128"
target triple = "x86_64-pc-linux-gnu"

; Function Attrs: nounwind uwtable
define internal void @parse_bs_info(i32 noundef %0, i32 noundef %1, i32 noundef %2, ptr noundef %3, ptr noundef %4) #1 {
  %6 = alloca i32, align 4
  %7 = alloca i32, align 4
  %8 = alloca i32, align 4
  %9 = alloca ptr, align 8
  %10 = alloca ptr, align 8
  store i32 %0, ptr %6, align 4, !tbaa !44
  store i32 %1, ptr %7, align 4, !tbaa !44
  store i32 %2, ptr %8, align 4, !tbaa !44
  store ptr %3, ptr %9, align 8, !tbaa !210
  store ptr %4, ptr %10, align 8, !tbaa !61
  %11 = load i32, ptr %7, align 4, !tbaa !44
  %12 = icmp ult i32 %11, 31
  br i1 %12, label %13, label %36

13:                                               ; preds = %5
  %14 = load i32, ptr %6, align 4, !tbaa !44
  %15 = load i32, ptr %7, align 4, !tbaa !44
  %16 = shl i32 %14, %15
  %17 = and i32 %16, 1073741824
  %18 = icmp ne i32 %17, 0
  br i1 %18, label %19, label %36

19:                                               ; preds = %13
  %20 = load i32, ptr %7, align 4, !tbaa !44
  %21 = mul i32 %20, 2
  store i32 %21, ptr %7, align 4, !tbaa !44
  %22 = load i32, ptr %8, align 4, !tbaa !44
  %23 = add i32 %22, 1
  store i32 %23, ptr %8, align 4, !tbaa !44
  %24 = load i32, ptr %6, align 4, !tbaa !44
  %25 = load i32, ptr %7, align 4, !tbaa !44
  %26 = add i32 %25, 1
  %27 = load i32, ptr %8, align 4, !tbaa !44
  %28 = load ptr, ptr %9, align 8, !tbaa !210
  %29 = load ptr, ptr %10, align 8, !tbaa !61
  call void @parse_bs_info(i32 noundef %24, i32 noundef %26, i32 noundef %27, ptr noundef %28, ptr noundef %29)
  %30 = load i32, ptr %6, align 4, !tbaa !44
  %31 = load i32, ptr %7, align 4, !tbaa !44
  %32 = add i32 %31, 2
  %33 = load i32, ptr %8, align 4, !tbaa !44
  %34 = load ptr, ptr %9, align 8, !tbaa !210
  %35 = load ptr, ptr %10, align 8, !tbaa !61
  call void @parse_bs_info(i32 noundef %30, i32 noundef %32, i32 noundef %33, ptr noundef %34, ptr noundef %35)
  br label %46

36:                                               ; preds = %13, %5
  %37 = load i32, ptr %8, align 4, !tbaa !44
  %38 = load ptr, ptr %9, align 8, !tbaa !210
  %39 = load ptr, ptr %38, align 8, !tbaa !61
  store i32 %37, ptr %39, align 4, !tbaa !44
  %40 = load ptr, ptr %9, align 8, !tbaa !210
  %41 = load ptr, ptr %40, align 8, !tbaa !61
  %42 = getelementptr inbounds nuw i32, ptr %41, i32 1
  store ptr %42, ptr %40, align 8, !tbaa !61
  %43 = load ptr, ptr %10, align 8, !tbaa !61
  %44 = load i32, ptr %43, align 4, !tbaa !44
  %45 = add i32 %44, 1
  store i32 %45, ptr %43, align 4, !tbaa !44
  br label %46

46:                                               ; preds = %36, %19
  ret void
}