; Function Attrs: nofree nosync nounwind memory(write, argmem: readwrite, inaccessiblemem: none) uwtable
define internal fastcc void @parse_bs_info(i32 noundef %0, i32 noundef range(i32 0, 63) %1, i32 noundef %2, ptr noundef nonnull captures(none) %3, ptr noundef captures(none) %4) unnamed_addr #11 {
  %6 = icmp samesign ult i32 %1, 31
  br i1 %6, label %.lr.ph, label %._crit_edge

.lr.ph:                                           ; preds = %5, %tailrecurse
  %.tr1923 = phi i32 [ %10, %tailrecurse ], [ %2, %5 ]
  %.tr1822 = phi i32 [ %12, %tailrecurse ], [ %1, %5 ]
  %7 = lshr i32 1073741824, %.tr1822
  %8 = and i32 %7, %0
  %.not = icmp eq i32 %8, 0
  br i1 %.not, label %._crit_edge, label %tailrecurse

tailrecurse:                                      ; preds = %.lr.ph
  %9 = shl nuw nsw i32 %.tr1822, 1
  %10 = add i32 %.tr1923, 1
  %11 = or disjoint i32 %9, 1
  tail call fastcc void @parse_bs_info(i32 noundef %0, i32 noundef %11, i32 noundef %10, ptr noundef %3, ptr noundef %4)
  %12 = add nuw nsw i32 %9, 2
  %13 = icmp ult i32 %.tr1822, 15
  br i1 %13, label %.lr.ph, label %._crit_edge

._crit_edge:                                      ; preds = %tailrecurse, %.lr.ph, %5
  %.tr19.lcssa = phi i32 [ %2, %5 ], [ %.tr1923, %.lr.ph ], [ %10, %tailrecurse ]
  %14 = load ptr, ptr %3, align 8, !tbaa !56
  store i32 %.tr19.lcssa, ptr %14, align 4, !tbaa !104
  %15 = getelementptr inbounds nuw i8, ptr %14, i64 4
  store ptr %15, ptr %3, align 8, !tbaa !56
  %16 = load i32, ptr %4, align 4, !tbaa !104
  %17 = add i32 %16, 1
  store i32 %17, ptr %4, align 4, !tbaa !104
  ret void
}